; Function Attrs: nounwind uwtable
define zeroext i8 @l_Lake_initFn____x40_Lake_DSL_AttributesCore___hyg_437____lambda__1(ptr noundef %0, ptr noundef %1) local_unnamed_addr #0 {
  %3 = load ptr, ptr @l_Lake_initFn____x40_Lake_DSL_AttributesCore___hyg_108____lambda__2___closed__1, align 8, !tbaa !9
  %4 = ptrtoint ptr %1 to i64
  %5 = and i64 %4, 1
  %.not = icmp eq i64 %5, 0
  br i1 %.not, label %6, label %lean_inc.exit19.thread

6:                                                ; preds = %2
  %.val.i = load i32, ptr %1, align 4, !tbaa !4
  %7 = icmp sgt i32 %.val.i, 0
  br i1 %7, label %8, label %10, !prof !11

8:                                                ; preds = %6
  %9 = add nuw i32 %.val.i, 1
  store i32 %9, ptr %1, align 4, !tbaa !4
  br label %lean_inc.exit19

10:                                               ; preds = %6
  %.not.i22 = icmp eq i32 %.val.i, 0
  br i1 %.not.i22, label %lean_inc.exit19, label %11

11:                                               ; preds = %10
  tail call void @lean_inc_ref_cold(ptr noundef nonnull %1) #4
  br label %lean_inc.exit19

lean_inc.exit19:                                  ; preds = %11, %10, %8
  %12 = tail call zeroext i8 @l_Lake_OrderedTagAttribute_hasTag(ptr noundef %3, ptr noundef nonnull %1, ptr noundef %0) #4
  %13 = icmp eq i8 %12, 0
  br i1 %13, label %16, label %38

lean_inc.exit19.thread:                           ; preds = %2
  %14 = tail call zeroext i8 @l_Lake_OrderedTagAttribute_hasTag(ptr noundef %3, ptr noundef %1, ptr noundef %0) #4
  %15 = icmp eq i8 %14, 0
  br i1 %15, label %lean_inc.exit.thread, label %lean_dec.exit18

16:                                               ; preds = %lean_inc.exit19
  %17 = load ptr, ptr @l_Lake_initFn____x40_Lake_DSL_AttributesCore___hyg_437____lambda__1___closed__1, align 8, !tbaa !9
  %.val.i23 = load i32, ptr %1, align 4, !tbaa !4
  %18 = icmp sgt i32 %.val.i23, 0
  br i1 %18, label %19, label %21, !prof !11

19:                                               ; preds = %16
  %20 = add nuw i32 %.val.i23, 1
  store i32 %20, ptr %1, align 4, !tbaa !4
  br label %lean_inc.exit

21:                                               ; preds = %16
  %.not.i24 = icmp eq i32 %.val.i23, 0
  br i1 %.not.i24, label %lean_inc.exit, label %22

22:                                               ; preds = %21
  tail call void @lean_inc_ref_cold(ptr noundef nonnull %1) #4
  br label %lean_inc.exit

lean_inc.exit:                                    ; preds = %22, %21, %19
  %23 = tail call zeroext i8 @l_Lake_OrderedTagAttribute_hasTag(ptr noundef %17, ptr noundef nonnull %1, ptr noundef %0) #4
  %24 = icmp eq i8 %23, 0
  br i1 %24, label %28, label %31

lean_inc.exit.thread:                             ; preds = %lean_inc.exit19.thread
  %25 = load ptr, ptr @l_Lake_initFn____x40_Lake_DSL_AttributesCore___hyg_437____lambda__1___closed__1, align 8, !tbaa !9
  %26 = tail call zeroext i8 @l_Lake_OrderedTagAttribute_hasTag(ptr noundef %25, ptr noundef %1, ptr noundef %0) #4
  %27 = icmp eq i8 %26, 0
  br i1 %27, label %28, label %lean_dec.exit18

28:                                               ; preds = %lean_inc.exit.thread, %lean_inc.exit
  %29 = load ptr, ptr @l_Lake_initFn____x40_Lake_DSL_AttributesCore___hyg_437____lambda__1___closed__2, align 8, !tbaa !9
  %30 = tail call zeroext i8 @l_Lake_OrderedTagAttribute_hasTag(ptr noundef %29, ptr noundef %1, ptr noundef %0) #4
  br label %lean_dec.exit18

31:                                               ; preds = %lean_inc.exit
  %32 = load i32, ptr %1, align 4, !tbaa !4
  %33 = icmp sgt i32 %32, 1
  br i1 %33, label %34, label %36, !prof !11

34:                                               ; preds = %31
  %35 = add nsw i32 %32, -1
  store i32 %35, ptr %1, align 4, !tbaa !4
  br label %lean_dec.exit18

36:                                               ; preds = %31
  %.not.i = icmp eq i32 %32, 0
  br i1 %.not.i, label %lean_dec.exit18, label %37

37:                                               ; preds = %36
  tail call void @lean_dec_ref_cold(ptr noundef nonnull %1) #4
  br label %lean_dec.exit18

38:                                               ; preds = %lean_inc.exit19
  %39 = load i32, ptr %1, align 4, !tbaa !4
  %40 = icmp sgt i32 %39, 1
  br i1 %40, label %41, label %43, !prof !11

41:                                               ; preds = %38
  %42 = add nsw i32 %39, -1
  store i32 %42, ptr %1, align 4, !tbaa !4
  br label %lean_dec.exit18

43:                                               ; preds = %38
  %.not.i20 = icmp eq i32 %39, 0
  br i1 %.not.i20, label %lean_dec.exit18, label %44

44:                                               ; preds = %43
  tail call void @lean_dec_ref_cold(ptr noundef nonnull %1) #4
  br label %lean_dec.exit18

lean_dec.exit18:                                  ; preds = %lean_inc.exit.thread, %lean_inc.exit19.thread, %41, %43, %44, %34, %36, %37, %28
  %.1 = phi i8 [ %30, %28 ], [ 1, %37 ], [ 1, %36 ], [ 1, %34 ], [ 1, %44 ], [ 1, %43 ], [ 1, %41 ], [ 1, %lean_inc.exit19.thread ], [ 1, %lean_inc.exit.thread ]
  ret i8 %.1
}